target datalayout = "e-m:e-p270:32:32-p271:32:32-p272:64:64-i64:64-i128:128-f80:128-n8:16:32:64-S128"
target triple = "x86_64-pc-linux-gnu"

%struct.Scheduler = type { ptr, ptr, i32, ptr, i32, i32, %union.pthread_mutex_t, i32, i32, %union.pthread_mutex_t, %union.pthread_cond_t, ptr, i32, ptr, i32, ptr, i32, ptr, i32, ptr, i32, i32, i32, %union.pthread_mutex_t, i64 }
%union.pthread_cond_t = type { %struct.__pthread_cond_s }
%struct.__pthread_cond_s = type { %union.__atomic_wide_counter, %union.__atomic_wide_counter, [2 x i32], [2 x i32], i32, i32, [2 x i32] }
%union.__atomic_wide_counter = type { i64 }
%union.pthread_mutex_t = type { %struct.__pthread_mutex_s }
%struct.__pthread_mutex_s = type { i32, i32, i32, i32, i32, i16, i16, %struct.__pthread_internal_list }
%struct.__pthread_internal_list = type { ptr, ptr }
%struct.SchTask = type { ptr, %struct.SchedulerNode, ptr, ptr, i64, i32 }
%struct.SchedulerNode = type { i32, i32, i32 }
%struct.SchWaiter = type { %union.pthread_mutex_t, %union.pthread_cond_t, i32, i32, i32 }
%struct.SchFilterGraph = type { ptr, ptr, i32, i32, i32, ptr, i32, %struct.SchTask, ptr, %struct.SchWaiter, i32, i32 }
%struct.SchFilterIn = type { %struct.SchedulerNode, %struct.SchedulerNode, i32, i32 }

@.str = private unnamed_addr constant [30 x i8] c"Assertion %s failed at %s:%d\0A\00", align 1
@.str.2 = private unnamed_addr constant [23 x i8] c"fftools/ffmpeg_sched.c\00", align 1
@.str.28 = private unnamed_addr constant [25 x i8] c"fg_idx < sch->nb_filters\00", align 1
@.str.30 = private unnamed_addr constant [23 x i8] c"in_idx < fg->nb_inputs\00", align 1

; Function Attrs: nounwind uwtable
define void @sch_filter_receive_finish(ptr noundef %0, i32 noundef %1, i32 noundef %2) #0 {
  %4 = alloca ptr, align 8
  %5 = alloca i32, align 4
  %6 = alloca i32, align 4
  %7 = alloca ptr, align 8
  %8 = alloca ptr, align 8
  store ptr %0, ptr %4, align 8, !tbaa !10
  store i32 %1, ptr %5, align 4, !tbaa !12
  store i32 %2, ptr %6, align 4, !tbaa !12
  call void @llvm.lifetime.start.p0(i64 8, ptr %7) #9
  call void @llvm.lifetime.start.p0(i64 8, ptr %8) #9
  br label %9

9:                                                ; preds = %3
  %10 = load i32, ptr %5, align 4, !tbaa !12
  %11 = load ptr, ptr %4, align 8, !tbaa !10
  %12 = getelementptr inbounds nuw %struct.Scheduler, ptr %11, i32 0, i32 18
  %13 = load i32, ptr %12, align 8, !tbaa !76
  %14 = icmp ult i32 %10, %13
  br i1 %14, label %16, label %15

15:                                               ; preds = %9
  call void (ptr, i32, ptr, ...) @av_log(ptr noundef null, i32 noundef 0, ptr noundef @.str, ptr noundef @.str.28, ptr noundef @.str.2, i32 noundef 2444)
  call void @abort() #10
  unreachable

16:                                               ; preds = %9
  br label %17

17:                                               ; preds = %16
  br label %18

18:                                               ; preds = %17
  %19 = load ptr, ptr %4, align 8, !tbaa !10
  %20 = getelementptr inbounds nuw %struct.Scheduler, ptr %19, i32 0, i32 17
  %21 = load ptr, ptr %20, align 8, !tbaa !77
  %22 = load i32, ptr %5, align 4, !tbaa !12
  %23 = zext i32 %22 to i64
  %24 = getelementptr inbounds nuw %struct.SchFilterGraph, ptr %21, i64 %23
  store ptr %24, ptr %7, align 8, !tbaa !78
  br label %25

25:                                               ; preds = %18
  %26 = load i32, ptr %6, align 4, !tbaa !12
  %27 = load ptr, ptr %7, align 8, !tbaa !78
  %28 = getelementptr inbounds nuw %struct.SchFilterGraph, ptr %27, i32 0, i32 2
  %29 = load i32, ptr %28, align 8, !tbaa !127
  %30 = icmp ult i32 %26, %29
  br i1 %30, label %32, label %31

31:                                               ; preds = %25
  call void (ptr, i32, ptr, ...) @av_log(ptr noundef null, i32 noundef 0, ptr noundef @.str, ptr noundef @.str.30, ptr noundef @.str.2, i32 noundef 2447)
  call void @abort() #10
  unreachable

32:                                               ; preds = %25
  br label %33

33:                                               ; preds = %32
  br label %34

34:                                               ; preds = %33
  %35 = load ptr, ptr %7, align 8, !tbaa !78
  %36 = getelementptr inbounds nuw %struct.SchFilterGraph, ptr %35, i32 0, i32 1
  %37 = load ptr, ptr %36, align 8, !tbaa !126
  %38 = load i32, ptr %6, align 4, !tbaa !12
  %39 = zext i32 %38 to i64
  %40 = getelementptr inbounds nuw %struct.SchFilterIn, ptr %37, i64 %39
  store ptr %40, ptr %8, align 8, !tbaa !148
  %41 = load ptr, ptr %8, align 8, !tbaa !148
  %42 = getelementptr inbounds nuw %struct.SchFilterIn, ptr %41, i32 0, i32 3
  %43 = load i32, ptr %42, align 4, !tbaa !240
  %44 = icmp ne i32 %43, 0
  br i1 %44, label %68, label %45

45:                                               ; preds = %34
  %46 = load ptr, ptr %8, align 8, !tbaa !148
  %47 = getelementptr inbounds nuw %struct.SchFilterIn, ptr %46, i32 0, i32 3
  store i32 1, ptr %47, align 4, !tbaa !240
  %48 = load ptr, ptr %7, align 8, !tbaa !78
  %49 = getelementptr inbounds nuw %struct.SchFilterGraph, ptr %48, i32 0, i32 8
  %50 = load ptr, ptr %49, align 8, !tbaa !239
  %51 = load i32, ptr %6, align 4, !tbaa !12
  call void @tq_receive_finish(ptr noundef %50, i32 noundef %51)
  %52 = load ptr, ptr %7, align 8, !tbaa !78
  %53 = getelementptr inbounds nuw %struct.SchFilterGraph, ptr %52, i32 0, i32 4
  %54 = load i32, ptr %53, align 8, !tbaa !241
  %55 = add i32 %54, 1
  store i32 %55, ptr %53, align 8, !tbaa !241
  %56 = load ptr, ptr %7, align 8, !tbaa !78
  %57 = getelementptr inbounds nuw %struct.SchFilterGraph, ptr %56, i32 0, i32 2
  %58 = load i32, ptr %57, align 8, !tbaa !127
  %59 = icmp eq i32 %55, %58
  br i1 %59, label %60, label %67

60:                                               ; preds = %45
  %61 = load ptr, ptr %7, align 8, !tbaa !78
  %62 = getelementptr inbounds nuw %struct.SchFilterGraph, ptr %61, i32 0, i32 8
  %63 = load ptr, ptr %62, align 8, !tbaa !239
  %64 = load ptr, ptr %7, align 8, !tbaa !78
  %65 = getelementptr inbounds nuw %struct.SchFilterGraph, ptr %64, i32 0, i32 2
  %66 = load i32, ptr %65, align 8, !tbaa !127
  call void @tq_receive_finish(ptr noundef %63, i32 noundef %66)
  br label %67

67:                                               ; preds = %60, %45
  br label %68

68:                                               ; preds = %67, %34
  call void @llvm.lifetime.end.p0(i64 8, ptr %8) #9
  call void @llvm.lifetime.end.p0(i64 8, ptr %7) #9
  ret void
}