; Function Attrs: nounwind uwtable
define void @sch_filter_receive_finish(ptr noundef readonly captures(none) %0, i32 noundef %1, i32 noundef %2) local_unnamed_addr #0 {
  %4 = getelementptr inbounds nuw i8, ptr %0, i64 232
  %5 = load i32, ptr %4, align 8, !tbaa !62
  %6 = icmp ult i32 %1, %5
  br i1 %6, label %8, label %7

7:                                                ; preds = %3
  tail call void (ptr, i32, ptr, ...) @av_log(ptr noundef null, i32 noundef 0, ptr noundef nonnull @.str, ptr noundef nonnull @.str.28, ptr noundef nonnull @.str.2, i32 noundef 2444) #9
  tail call void @abort() #10
  unreachable

8:                                                ; preds = %3
  %9 = getelementptr inbounds nuw i8, ptr %0, i64 224
  %10 = load ptr, ptr %9, align 8, !tbaa !65
  %11 = zext i32 %1 to i64
  %12 = getelementptr inbounds nuw %struct.SchFilterGraph, ptr %10, i64 %11
  %13 = getelementptr inbounds nuw i8, ptr %12, i64 16
  %14 = load i32, ptr %13, align 8, !tbaa !110
  %15 = icmp ult i32 %2, %14
  br i1 %15, label %17, label %16

16:                                               ; preds = %8
  tail call void (ptr, i32, ptr, ...) @av_log(ptr noundef null, i32 noundef 0, ptr noundef nonnull @.str, ptr noundef nonnull @.str.30, ptr noundef nonnull @.str.2, i32 noundef 2447) #9
  tail call void @abort() #10
  unreachable

17:                                               ; preds = %8
  %18 = getelementptr inbounds nuw i8, ptr %12, i64 8
  %19 = load ptr, ptr %18, align 8, !tbaa !109
  %20 = zext i32 %2 to i64
  %21 = getelementptr inbounds nuw %struct.SchFilterIn, ptr %19, i64 %20, i32 3
  %22 = load i32, ptr %21, align 4, !tbaa !219
  %.not = icmp eq i32 %22, 0
  br i1 %.not, label %23, label %33

23:                                               ; preds = %17
  store i32 1, ptr %21, align 4, !tbaa !219
  %24 = getelementptr inbounds nuw i8, ptr %12, i64 104
  %25 = load ptr, ptr %24, align 8, !tbaa !214
  tail call void @tq_receive_finish(ptr noundef %25, i32 noundef %2) #9
  %26 = getelementptr inbounds nuw i8, ptr %12, i64 24
  %27 = load i32, ptr %26, align 8, !tbaa !220
  %28 = add i32 %27, 1
  store i32 %28, ptr %26, align 8, !tbaa !220
  %29 = load i32, ptr %13, align 8, !tbaa !110
  %30 = icmp eq i32 %28, %29
  br i1 %30, label %31, label %33

31:                                               ; preds = %23
  %32 = load ptr, ptr %24, align 8, !tbaa !214
  tail call void @tq_receive_finish(ptr noundef %32, i32 noundef %28) #9
  br label %33

33:                                               ; preds = %23, %31, %17
  ret void
}